target datalayout = "e-m:e-p270:32:32-p271:32:32-p272:64:64-i64:64-i128:128-f80:128-n8:16:32:64-S128"
target triple = "x86_64-pc-linux-gnu"

%"class.boost::core::basic_string_view" = type { ptr, i64 }
%"class.boost::urls::pct_string_view" = type { %"class.boost::urls::grammar::string_view_base", i64 }
%"class.boost::urls::grammar::string_view_base" = type { %"class.boost::core::basic_string_view" }
%"struct.boost::urls::detail::segments_iter_impl" = type { [8 x i8], %"class.boost::urls::detail::path_ref", i64, i64, i64, i64, %"class.boost::urls::pct_string_view" }
%"class.boost::urls::detail::path_ref" = type { ptr, ptr, i64, i64, i64 }

; Function Attrs: mustprogress nounwind uwtable
define linkonce_odr hidden void @_ZN5boost4core17basic_string_viewIcEC2EPKcm(ptr noundef nonnull align 8 dereferenceable(16) %0, ptr noundef %1, i64 noundef %2) unnamed_addr #2 comdat align 2 {
  %4 = alloca ptr, align 8
  %5 = alloca ptr, align 8
  %6 = alloca i64, align 8
  store ptr %0, ptr %4, align 8, !tbaa !3
  store ptr %1, ptr %5, align 8, !tbaa !3
  store i64 %2, ptr %6, align 8, !tbaa !19
  %7 = load ptr, ptr %4, align 8
  %8 = getelementptr inbounds nuw %"class.boost::core::basic_string_view", ptr %7, i32 0, i32 0
  %9 = load ptr, ptr %5, align 8, !tbaa !3
  store ptr %9, ptr %8, align 8, !tbaa !27
  %10 = getelementptr inbounds nuw %"class.boost::core::basic_string_view", ptr %7, i32 0, i32 1
  %11 = load i64, ptr %6, align 8, !tbaa !19
  store i64 %11, ptr %10, align 8, !tbaa !28
  ret void
}

; Function Attrs: mustprogress nounwind uwtable
define linkonce_odr hidden void @_ZN5boost4urls7grammar16string_view_baseC2EPKcm(ptr noundef nonnull align 8 dereferenceable(16) %0, ptr noundef %1, i64 noundef %2) unnamed_addr #2 comdat align 2 {
  %4 = alloca ptr, align 8
  %5 = alloca ptr, align 8
  %6 = alloca i64, align 8
  store ptr %0, ptr %4, align 8, !tbaa !3
  store ptr %1, ptr %5, align 8, !tbaa !3
  store i64 %2, ptr %6, align 8, !tbaa !19
  %7 = load ptr, ptr %4, align 8
  %8 = getelementptr inbounds nuw %"class.boost::urls::grammar::string_view_base", ptr %7, i32 0, i32 0
  %9 = load ptr, ptr %5, align 8, !tbaa !3
  %10 = load i64, ptr %6, align 8, !tbaa !19
  call void @_ZN5boost4core17basic_string_viewIcEC2EPKcm(ptr noundef nonnull align 8 dereferenceable(16) %8, ptr noundef %9, i64 noundef %10) #7
  ret void
}

; Function Attrs: mustprogress nounwind uwtable
define linkonce_odr hidden void @_ZN5boost4urls15pct_string_viewC2EPKcmm(ptr noundef nonnull align 8 dereferenceable(24) %0, ptr noundef %1, i64 noundef %2, i64 noundef %3) unnamed_addr #2 comdat align 2 {
  %5 = alloca ptr, align 8
  %6 = alloca ptr, align 8
  %7 = alloca i64, align 8
  %8 = alloca i64, align 8
  store ptr %0, ptr %5, align 8, !tbaa !3
  store ptr %1, ptr %6, align 8, !tbaa !3
  store i64 %2, ptr %7, align 8, !tbaa !19
  store i64 %3, ptr %8, align 8, !tbaa !19
  %9 = load ptr, ptr %5, align 8
  %10 = load ptr, ptr %6, align 8, !tbaa !3
  %11 = load i64, ptr %7, align 8, !tbaa !19
  call void @_ZN5boost4urls7grammar16string_view_baseC2EPKcm(ptr noundef nonnull align 8 dereferenceable(16) %9, ptr noundef %10, i64 noundef %11) #7
  %12 = getelementptr inbounds nuw %"class.boost::urls::pct_string_view", ptr %9, i32 0, i32 1
  %13 = load i64, ptr %8, align 8, !tbaa !19
  store i64 %13, ptr %12, align 8, !tbaa !17
  ret void
}

; Function Attrs: inlinehint mustprogress nounwind uwtable
define linkonce_odr hidden void @_ZN5boost4urls27make_pct_string_view_unsafeEPKcmm(ptr dead_on_unwind noalias writable sret(%"class.boost::urls::pct_string_view") align 8 %0, ptr noundef %1, i64 noundef %2, i64 noundef %3) #4 comdat {
  %5 = alloca ptr, align 8
  %6 = alloca i64, align 8
  %7 = alloca i64, align 8
  store ptr %1, ptr %5, align 8, !tbaa !3
  store i64 %2, ptr %6, align 8, !tbaa !19
  store i64 %3, ptr %7, align 8, !tbaa !19
  %8 = load ptr, ptr %5, align 8, !tbaa !3
  %9 = load i64, ptr %6, align 8, !tbaa !19
  %10 = load i64, ptr %7, align 8, !tbaa !19
  call void @_ZN5boost4urls15pct_string_viewC2EPKcmm(ptr noundef nonnull align 8 dereferenceable(24) %0, ptr noundef %8, i64 noundef %9, i64 noundef %10) #7
  ret void
}

; Function Attrs: mustprogress nounwind uwtable
define hidden void @_ZN5boost4urls6detail18segments_iter_impl6updateEv(ptr noundef nonnull align 8 dereferenceable(104) %0) #2 align 2 {
  %2 = alloca ptr, align 8
  %3 = alloca ptr, align 8
  %4 = alloca ptr, align 8
  %5 = alloca ptr, align 8
  %6 = alloca %"class.boost::urls::pct_string_view", align 8
  store ptr %0, ptr %2, align 8, !tbaa !3
  %7 = load ptr, ptr %2, align 8
  call void @llvm.lifetime.start.p0(i64 8, ptr %3) #7
  %8 = getelementptr inbounds nuw %"struct.boost::urls::detail::segments_iter_impl", ptr %7, i32 0, i32 1
  %9 = call noundef ptr @_ZNK5boost4urls6detail8path_ref3endEv(ptr noundef nonnull align 8 dereferenceable(40) %8) #7
  store ptr %9, ptr %3, align 8, !tbaa !3
  call void @llvm.lifetime.start.p0(i64 8, ptr %4) #7
  %10 = getelementptr inbounds nuw %"struct.boost::urls::detail::segments_iter_impl", ptr %7, i32 0, i32 1
  %11 = call noundef ptr @_ZNK5boost4urls6detail8path_ref4dataEv(ptr noundef nonnull align 8 dereferenceable(40) %10) #7
  %12 = getelementptr inbounds nuw %"struct.boost::urls::detail::segments_iter_impl", ptr %7, i32 0, i32 2
  %13 = load i64, ptr %12, align 8, !tbaa !7
  %14 = getelementptr inbounds nuw i8, ptr %11, i64 %13
  store ptr %14, ptr %4, align 8, !tbaa !3
  %15 = getelementptr inbounds nuw %"struct.boost::urls::detail::segments_iter_impl", ptr %7, i32 0, i32 5
  store i64 0, ptr %15, align 8, !tbaa !16
  call void @llvm.lifetime.start.p0(i64 8, ptr %5) #7
  %16 = load ptr, ptr %4, align 8, !tbaa !3
  store ptr %16, ptr %5, align 8, !tbaa !3
  br label %17

17:                                               ; preds = %35, %32, %1
  %18 = load ptr, ptr %5, align 8, !tbaa !3
  %19 = load ptr, ptr %3, align 8, !tbaa !3
  %20 = icmp ne ptr %18, %19
  br i1 %20, label %21, label %41

21:                                               ; preds = %17
  %22 = load ptr, ptr %5, align 8, !tbaa !3
  %23 = load i8, ptr %22, align 1, !tbaa !20
  %24 = sext i8 %23 to i32
  %25 = icmp eq i32 %24, 47
  br i1 %25, label %26, label %27

26:                                               ; preds = %21
  br label %41

27:                                               ; preds = %21
  %28 = load ptr, ptr %5, align 8, !tbaa !3
  %29 = load i8, ptr %28, align 1, !tbaa !20
  %30 = sext i8 %29 to i32
  %31 = icmp ne i32 %30, 37
  br i1 %31, label %32, label %35

32:                                               ; preds = %27
  %33 = load ptr, ptr %5, align 8, !tbaa !3
  %34 = getelementptr inbounds nuw i8, ptr %33, i32 1
  store ptr %34, ptr %5, align 8, !tbaa !3
  br label %17, !llvm.loop !21

35:                                               ; preds = %27
  %36 = load ptr, ptr %5, align 8, !tbaa !3
  %37 = getelementptr inbounds i8, ptr %36, i64 3
  store ptr %37, ptr %5, align 8, !tbaa !3
  %38 = getelementptr inbounds nuw %"struct.boost::urls::detail::segments_iter_impl", ptr %7, i32 0, i32 5
  %39 = load i64, ptr %38, align 8, !tbaa !16
  %40 = add i64 %39, 2
  store i64 %40, ptr %38, align 8, !tbaa !16
  br label %17, !llvm.loop !21

41:                                               ; preds = %26, %17
  %42 = load ptr, ptr %5, align 8, !tbaa !3
  %43 = getelementptr inbounds nuw %"struct.boost::urls::detail::segments_iter_impl", ptr %7, i32 0, i32 1
  %44 = call noundef ptr @_ZNK5boost4urls6detail8path_ref4dataEv(ptr noundef nonnull align 8 dereferenceable(40) %43) #7
  %45 = ptrtoint ptr %42 to i64
  %46 = ptrtoint ptr %44 to i64
  %47 = sub i64 %45, %46
  %48 = getelementptr inbounds nuw %"struct.boost::urls::detail::segments_iter_impl", ptr %7, i32 0, i32 3
  store i64 %47, ptr %48, align 8, !tbaa !14
  %49 = load ptr, ptr %5, align 8, !tbaa !3
  %50 = load ptr, ptr %4, align 8, !tbaa !3
  %51 = ptrtoint ptr %49 to i64
  %52 = ptrtoint ptr %50 to i64
  %53 = sub i64 %51, %52
  %54 = getelementptr inbounds nuw %"struct.boost::urls::detail::segments_iter_impl", ptr %7, i32 0, i32 5
  %55 = load i64, ptr %54, align 8, !tbaa !16
  %56 = sub i64 %53, %55
  %57 = getelementptr inbounds nuw %"struct.boost::urls::detail::segments_iter_impl", ptr %7, i32 0, i32 5
  store i64 %56, ptr %57, align 8, !tbaa !16
  call void @llvm.lifetime.start.p0(i64 24, ptr %6) #7
  %58 = load ptr, ptr %4, align 8, !tbaa !3
  %59 = load ptr, ptr %5, align 8, !tbaa !3
  %60 = load ptr, ptr %4, align 8, !tbaa !3
  %61 = ptrtoint ptr %59 to i64
  %62 = ptrtoint ptr %60 to i64
  %63 = sub i64 %61, %62
  %64 = getelementptr inbounds nuw %"struct.boost::urls::detail::segments_iter_impl", ptr %7, i32 0, i32 5
  %65 = load i64, ptr %64, align 8, !tbaa !16
  call void @_ZN5boost4urls27make_pct_string_view_unsafeEPKcmm(ptr dead_on_unwind writable sret(%"class.boost::urls::pct_string_view") align 8 %6, ptr noundef %58, i64 noundef %63, i64 noundef %65) #7
  %66 = getelementptr inbounds nuw %"struct.boost::urls::detail::segments_iter_impl", ptr %7, i32 0, i32 6
  call void @llvm.memcpy.p0.p0.i64(ptr align 8 %66, ptr align 8 %6, i64 24, i1 false)
  call void @llvm.lifetime.end.p0(i64 24, ptr %6) #7
  call void @llvm.lifetime.end.p0(i64 8, ptr %5) #7
  call void @llvm.lifetime.end.p0(i64 8, ptr %4) #7
  call void @llvm.lifetime.end.p0(i64 8, ptr %3) #7
  ret void
}