; Function Attrs: mustprogress nounwind uwtable
define hidden void @_ZN5boost4urls6detail18segments_iter_impl6updateEv(ptr noundef nonnull align 8 dereferenceable(104) %0) local_unnamed_addr #3 align 2 {
  %2 = getelementptr inbounds nuw i8, ptr %0, i64 8
  %3 = tail call noundef ptr @_ZNK5boost4urls6detail8path_ref3endEv(ptr noundef nonnull align 8 dereferenceable(40) %2) #8
  %4 = tail call noundef ptr @_ZNK5boost4urls6detail8path_ref4dataEv(ptr noundef nonnull align 8 dereferenceable(40) %2) #8
  %5 = getelementptr inbounds nuw i8, ptr %0, i64 48
  %6 = load i64, ptr %5, align 8, !tbaa !10
  %7 = getelementptr inbounds nuw i8, ptr %4, i64 %6
  %8 = getelementptr inbounds nuw i8, ptr %0, i64 72
  store i64 0, ptr %8, align 8, !tbaa !16
  %.not16 = icmp eq ptr %7, %3
  br i1 %.not16, label %._crit_edge, label %.lr.ph

.lr.ph:                                           ; preds = %1, %.backedge
  %.017 = phi ptr [ %.0.be, %.backedge ], [ %7, %1 ]
  %9 = phi i64 [ %13, %.backedge ], [ 0, %1 ]
  %10 = load i8, ptr %.017, align 1, !tbaa !9
  switch i8 %10, label %11 [
    i8 47, label %._crit_edge
    i8 37, label %14
  ]

11:                                               ; preds = %.lr.ph
  %12 = getelementptr inbounds nuw i8, ptr %.017, i64 1
  br label %.backedge

.backedge:                                        ; preds = %11, %14
  %13 = phi i64 [ %9, %11 ], [ %16, %14 ]
  %.0.be = phi ptr [ %12, %11 ], [ %15, %14 ]
  %.not = icmp eq ptr %.0.be, %3
  br i1 %.not, label %._crit_edge, label %.lr.ph, !llvm.loop !17

14:                                               ; preds = %.lr.ph
  %15 = getelementptr inbounds i8, ptr %.017, i64 3
  %16 = add i64 %9, 2
  store i64 %16, ptr %8, align 8, !tbaa !16
  br label %.backedge

._crit_edge:                                      ; preds = %.backedge, %.lr.ph, %1
  %.0.lcssa = phi ptr [ %3, %1 ], [ %.017, %.lr.ph ], [ %3, %.backedge ]
  %17 = tail call noundef ptr @_ZNK5boost4urls6detail8path_ref4dataEv(ptr noundef nonnull align 8 dereferenceable(40) %2) #8
  %18 = ptrtoint ptr %.0.lcssa to i64
  %19 = ptrtoint ptr %17 to i64
  %20 = sub i64 %18, %19
  %21 = getelementptr inbounds nuw i8, ptr %0, i64 56
  store i64 %20, ptr %21, align 8, !tbaa !19
  %22 = ptrtoint ptr %7 to i64
  %23 = sub i64 %18, %22
  %24 = load i64, ptr %8, align 8, !tbaa !16
  %25 = sub i64 %23, %24
  store i64 %25, ptr %8, align 8, !tbaa !16
  %26 = getelementptr inbounds nuw i8, ptr %0, i64 80
  store ptr %7, ptr %26, align 8
  %.sroa.4.0..sroa_idx = getelementptr inbounds i8, ptr %0, i64 88
  store i64 %23, ptr %.sroa.4.0..sroa_idx, align 8
  %.sroa.5.0..sroa_idx = getelementptr inbounds i8, ptr %0, i64 96
  store i64 %25, ptr %.sroa.5.0..sroa_idx, align 8
  ret void
}